; Function Attrs: mustprogress nofree norecurse nosync nounwind willreturn memory(argmem: read) uwtable
define hidden range(i24 0, 131072) i24 @python_hashlib_Hacl_Hash_Blake2s_Simd128_info(ptr noundef readonly captures(none) %0) local_unnamed_addr #17 {
  %.sroa.0.0.copyload = load i8, ptr %0, align 8, !tbaa !3
  %.sroa.4.0..sroa_idx = getelementptr inbounds nuw i8, ptr %0, i64 1
  %.sroa.4.0.copyload = load i8, ptr %.sroa.4.0..sroa_idx, align 1, !tbaa !3
  %.sroa.5.0..sroa_idx = getelementptr inbounds nuw i8, ptr %0, i64 2
  %.sroa.5.0.copyload = load i8, ptr %.sroa.5.0..sroa_idx, align 2, !tbaa !10
  %2 = and i8 %.sroa.5.0.copyload, 1
  %.sroa.3.0.insert.ext = zext nneg i8 %2 to i24
  %.sroa.3.0.insert.shift = shl nuw nsw i24 %.sroa.3.0.insert.ext, 16
  %.sroa.2.0.insert.ext = zext i8 %.sroa.4.0.copyload to i24
  %.sroa.2.0.insert.shift = shl nuw nsw i24 %.sroa.2.0.insert.ext, 8
  %.sroa.2.0.insert.insert = or disjoint i24 %.sroa.3.0.insert.shift, %.sroa.2.0.insert.shift
  %.sroa.04.0.insert.ext = zext i8 %.sroa.0.0.copyload to i24
  %.sroa.04.0.insert.insert = or disjoint i24 %.sroa.2.0.insert.insert, %.sroa.04.0.insert.ext
  ret i24 %.sroa.04.0.insert.insert
}